target datalayout = "e-m:e-p270:32:32-p271:32:32-p272:64:64-i64:64-i128:128-f80:128-n8:16:32:64-S128"
target triple = "x86_64-pc-linux-gnu"

@.str = private unnamed_addr constant [11 x i8] c"Word level\00", align 1
@.str.1 = private unnamed_addr constant [6 x i8] c"%read\00", align 1
@.str.2 = private unnamed_addr constant [7 x i8] c"%write\00", align 1
@.str.3 = private unnamed_addr constant [4 x i8] c"%ps\00", align 1
@.str.4 = private unnamed_addr constant [6 x i8] c"%cone\00", align 1
@.str.5 = private unnamed_addr constant [5 x i8] c"%abs\00", align 1
@.str.6 = private unnamed_addr constant [6 x i8] c"%pdra\00", align 1
@.str.7 = private unnamed_addr constant [6 x i8] c"%abs2\00", align 1
@.str.8 = private unnamed_addr constant [8 x i8] c"%memabs\00", align 1
@.str.9 = private unnamed_addr constant [9 x i8] c"%memabs2\00", align 1
@.str.10 = private unnamed_addr constant [7 x i8] c"%blast\00", align 1
@.str.11 = private unnamed_addr constant [10 x i8] c"%blastmem\00", align 1
@.str.12 = private unnamed_addr constant [8 x i8] c"%retime\00", align 1
@.str.13 = private unnamed_addr constant [9 x i8] c"%profile\00", align 1
@.str.14 = private unnamed_addr constant [13 x i8] c"%short_names\00", align 1
@.str.15 = private unnamed_addr constant [6 x i8] c"%show\00", align 1
@.str.16 = private unnamed_addr constant [6 x i8] c"%test\00", align 1
@.str.17 = private unnamed_addr constant [7 x i8] c"inv_ps\00", align 1
@.str.18 = private unnamed_addr constant [10 x i8] c"inv_print\00", align 1
@.str.19 = private unnamed_addr constant [10 x i8] c"inv_check\00", align 1
@.str.20 = private unnamed_addr constant [8 x i8] c"inv_get\00", align 1
@.str.21 = private unnamed_addr constant [8 x i8] c"inv_put\00", align 1
@.str.22 = private unnamed_addr constant [8 x i8] c"inv_min\00", align 1

; Function Attrs: nounwind uwtable
define void @Wlc_Init(ptr noundef %0) #0 {
  %2 = alloca ptr, align 8
  store ptr %0, ptr %2, align 8, !tbaa !3
  %3 = load ptr, ptr %2, align 8, !tbaa !3
  call void @Cmd_CommandAdd(ptr noundef %3, ptr noundef @.str, ptr noundef @.str.1, ptr noundef @Abc_CommandReadWlc, i32 noundef 0)
  %4 = load ptr, ptr %2, align 8, !tbaa !3
  call void @Cmd_CommandAdd(ptr noundef %4, ptr noundef @.str, ptr noundef @.str.2, ptr noundef @Abc_CommandWriteWlc, i32 noundef 0)
  %5 = load ptr, ptr %2, align 8, !tbaa !3
  call void @Cmd_CommandAdd(ptr noundef %5, ptr noundef @.str, ptr noundef @.str.3, ptr noundef @Abc_CommandPs, i32 noundef 0)
  %6 = load ptr, ptr %2, align 8, !tbaa !3
  call void @Cmd_CommandAdd(ptr noundef %6, ptr noundef @.str, ptr noundef @.str.4, ptr noundef @Abc_CommandCone, i32 noundef 0)
  %7 = load ptr, ptr %2, align 8, !tbaa !3
  call void @Cmd_CommandAdd(ptr noundef %7, ptr noundef @.str, ptr noundef @.str.5, ptr noundef @Abc_CommandAbs, i32 noundef 0)
  %8 = load ptr, ptr %2, align 8, !tbaa !3
  call void @Cmd_CommandAdd(ptr noundef %8, ptr noundef @.str, ptr noundef @.str.6, ptr noundef @Abc_CommandPdrAbs, i32 noundef 0)
  %9 = load ptr, ptr %2, align 8, !tbaa !3
  call void @Cmd_CommandAdd(ptr noundef %9, ptr noundef @.str, ptr noundef @.str.7, ptr noundef @Abc_CommandAbs2, i32 noundef 0)
  %10 = load ptr, ptr %2, align 8, !tbaa !3
  call void @Cmd_CommandAdd(ptr noundef %10, ptr noundef @.str, ptr noundef @.str.8, ptr noundef @Abc_CommandMemAbs, i32 noundef 0)
  %11 = load ptr, ptr %2, align 8, !tbaa !3
  call void @Cmd_CommandAdd(ptr noundef %11, ptr noundef @.str, ptr noundef @.str.9, ptr noundef @Abc_CommandMemAbs2, i32 noundef 0)
  %12 = load ptr, ptr %2, align 8, !tbaa !3
  call void @Cmd_CommandAdd(ptr noundef %12, ptr noundef @.str, ptr noundef @.str.10, ptr noundef @Abc_CommandBlast, i32 noundef 0)
  %13 = load ptr, ptr %2, align 8, !tbaa !3
  call void @Cmd_CommandAdd(ptr noundef %13, ptr noundef @.str, ptr noundef @.str.11, ptr noundef @Abc_CommandBlastMem, i32 noundef 0)
  %14 = load ptr, ptr %2, align 8, !tbaa !3
  call void @Cmd_CommandAdd(ptr noundef %14, ptr noundef @.str, ptr noundef @.str.12, ptr noundef @Abc_CommandRetime, i32 noundef 0)
  %15 = load ptr, ptr %2, align 8, !tbaa !3
  call void @Cmd_CommandAdd(ptr noundef %15, ptr noundef @.str, ptr noundef @.str.13, ptr noundef @Abc_CommandProfile, i32 noundef 0)
  %16 = load ptr, ptr %2, align 8, !tbaa !3
  call void @Cmd_CommandAdd(ptr noundef %16, ptr noundef @.str, ptr noundef @.str.14, ptr noundef @Abc_CommandShortNames, i32 noundef 0)
  %17 = load ptr, ptr %2, align 8, !tbaa !3
  call void @Cmd_CommandAdd(ptr noundef %17, ptr noundef @.str, ptr noundef @.str.15, ptr noundef @Abc_CommandShow, i32 noundef 0)
  %18 = load ptr, ptr %2, align 8, !tbaa !3
  call void @Cmd_CommandAdd(ptr noundef %18, ptr noundef @.str, ptr noundef @.str.16, ptr noundef @Abc_CommandTest, i32 noundef 0)
  %19 = load ptr, ptr %2, align 8, !tbaa !3
  call void @Cmd_CommandAdd(ptr noundef %19, ptr noundef @.str, ptr noundef @.str.17, ptr noundef @Abc_CommandInvPs, i32 noundef 0)
  %20 = load ptr, ptr %2, align 8, !tbaa !3
  call void @Cmd_CommandAdd(ptr noundef %20, ptr noundef @.str, ptr noundef @.str.18, ptr noundef @Abc_CommandInvPrint, i32 noundef 0)
  %21 = load ptr, ptr %2, align 8, !tbaa !3
  call void @Cmd_CommandAdd(ptr noundef %21, ptr noundef @.str, ptr noundef @.str.19, ptr noundef @Abc_CommandInvCheck, i32 noundef 0)
  %22 = load ptr, ptr %2, align 8, !tbaa !3
  call void @Cmd_CommandAdd(ptr noundef %22, ptr noundef @.str, ptr noundef @.str.20, ptr noundef @Abc_CommandInvGet, i32 noundef 0)
  %23 = load ptr, ptr %2, align 8, !tbaa !3
  call void @Cmd_CommandAdd(ptr noundef %23, ptr noundef @.str, ptr noundef @.str.21, ptr noundef @Abc_CommandInvPut, i32 noundef 0)
  %24 = load ptr, ptr %2, align 8, !tbaa !3
  call void @Cmd_CommandAdd(ptr noundef %24, ptr noundef @.str, ptr noundef @.str.22, ptr noundef @Abc_CommandInvMin, i32 noundef 0)
  ret void
}