; Function Attrs: nounwind uwtable
define void @Wlc_Init(ptr noundef %0) local_unnamed_addr #0 {
  tail call void @Cmd_CommandAdd(ptr noundef %0, ptr noundef nonnull @.str, ptr noundef nonnull @.str.1, ptr noundef nonnull @Abc_CommandReadWlc, i32 noundef 0) #17
  tail call void @Cmd_CommandAdd(ptr noundef %0, ptr noundef nonnull @.str, ptr noundef nonnull @.str.2, ptr noundef nonnull @Abc_CommandWriteWlc, i32 noundef 0) #17
  tail call void @Cmd_CommandAdd(ptr noundef %0, ptr noundef nonnull @.str, ptr noundef nonnull @.str.3, ptr noundef nonnull @Abc_CommandPs, i32 noundef 0) #17
  tail call void @Cmd_CommandAdd(ptr noundef %0, ptr noundef nonnull @.str, ptr noundef nonnull @.str.4, ptr noundef nonnull @Abc_CommandCone, i32 noundef 0) #17
  tail call void @Cmd_CommandAdd(ptr noundef %0, ptr noundef nonnull @.str, ptr noundef nonnull @.str.5, ptr noundef nonnull @Abc_CommandAbs, i32 noundef 0) #17
  tail call void @Cmd_CommandAdd(ptr noundef %0, ptr noundef nonnull @.str, ptr noundef nonnull @.str.6, ptr noundef nonnull @Abc_CommandPdrAbs, i32 noundef 0) #17
  tail call void @Cmd_CommandAdd(ptr noundef %0, ptr noundef nonnull @.str, ptr noundef nonnull @.str.7, ptr noundef nonnull @Abc_CommandAbs2, i32 noundef 0) #17
  tail call void @Cmd_CommandAdd(ptr noundef %0, ptr noundef nonnull @.str, ptr noundef nonnull @.str.8, ptr noundef nonnull @Abc_CommandMemAbs, i32 noundef 0) #17
  tail call void @Cmd_CommandAdd(ptr noundef %0, ptr noundef nonnull @.str, ptr noundef nonnull @.str.9, ptr noundef nonnull @Abc_CommandMemAbs2, i32 noundef 0) #17
  tail call void @Cmd_CommandAdd(ptr noundef %0, ptr noundef nonnull @.str, ptr noundef nonnull @.str.10, ptr noundef nonnull @Abc_CommandBlast, i32 noundef 0) #17
  tail call void @Cmd_CommandAdd(ptr noundef %0, ptr noundef nonnull @.str, ptr noundef nonnull @.str.11, ptr noundef nonnull @Abc_CommandBlastMem, i32 noundef 0) #17
  tail call void @Cmd_CommandAdd(ptr noundef %0, ptr noundef nonnull @.str, ptr noundef nonnull @.str.12, ptr noundef nonnull @Abc_CommandRetime, i32 noundef 0) #17
  tail call void @Cmd_CommandAdd(ptr noundef %0, ptr noundef nonnull @.str, ptr noundef nonnull @.str.13, ptr noundef nonnull @Abc_CommandProfile, i32 noundef 0) #17
  tail call void @Cmd_CommandAdd(ptr noundef %0, ptr noundef nonnull @.str, ptr noundef nonnull @.str.14, ptr noundef nonnull @Abc_CommandShortNames, i32 noundef 0) #17
  tail call void @Cmd_CommandAdd(ptr noundef %0, ptr noundef nonnull @.str, ptr noundef nonnull @.str.15, ptr noundef nonnull @Abc_CommandShow, i32 noundef 0) #17
  tail call void @Cmd_CommandAdd(ptr noundef %0, ptr noundef nonnull @.str, ptr noundef nonnull @.str.16, ptr noundef nonnull @Abc_CommandTest, i32 noundef 0) #17
  tail call void @Cmd_CommandAdd(ptr noundef %0, ptr noundef nonnull @.str, ptr noundef nonnull @.str.17, ptr noundef nonnull @Abc_CommandInvPs, i32 noundef 0) #17
  tail call void @Cmd_CommandAdd(ptr noundef %0, ptr noundef nonnull @.str, ptr noundef nonnull @.str.18, ptr noundef nonnull @Abc_CommandInvPrint, i32 noundef 0) #17
  tail call void @Cmd_CommandAdd(ptr noundef %0, ptr noundef nonnull @.str, ptr noundef nonnull @.str.19, ptr noundef nonnull @Abc_CommandInvCheck, i32 noundef 0) #17
  tail call void @Cmd_CommandAdd(ptr noundef %0, ptr noundef nonnull @.str, ptr noundef nonnull @.str.20, ptr noundef nonnull @Abc_CommandInvGet, i32 noundef 0) #17
  tail call void @Cmd_CommandAdd(ptr noundef %0, ptr noundef nonnull @.str, ptr noundef nonnull @.str.21, ptr noundef nonnull @Abc_CommandInvPut, i32 noundef 0) #17
  tail call void @Cmd_CommandAdd(ptr noundef %0, ptr noundef nonnull @.str, ptr noundef nonnull @.str.22, ptr noundef nonnull @Abc_CommandInvMin, i32 noundef 0) #17
  ret void
}